; Function Attrs: mustprogress nofree norecurse nosync nounwind willreturn memory(read, argmem: readwrite, inaccessiblemem: none) uwtable
define void @_ZN19EditPluginContainer30EditPluginFactoryRangeIterator3endEv(ptr dead_on_unwind noalias writable writeonly sret(%class.ConstPluginIterator) align 8 captures(none) initializes((0, 17)) %0, ptr noundef nonnull readonly align 8 captures(none) dereferenceable(9) %1) local_unnamed_addr #16 align 2 {
_ZN19ConstPluginIteratorI10EditPluginEC2ERKSt6vectorIPS0_SaIS3_EERKN9__gnu_cxx17__normal_iteratorIPKS3_S5_EEb.exit:
  %2 = load ptr, ptr %1, align 8
  %3 = getelementptr inbounds nuw i8, ptr %2, i64 8
  %4 = load ptr, ptr %3, align 8
  %5 = getelementptr inbounds nuw i8, ptr %1, i64 8
  %6 = load i8, ptr %5, align 8
  %7 = and i8 %6, 1
  store ptr %2, ptr %0, align 8
  %8 = getelementptr inbounds nuw i8, ptr %0, i64 8
  %9 = ptrtoint ptr %4 to i64
  store i64 %9, ptr %8, align 8
  %10 = getelementptr inbounds nuw i8, ptr %0, i64 16
  store i8 %7, ptr %10, align 8
  ret void
}